target datalayout = "e-m:e-p270:32:32-p271:32:32-p272:64:64-i64:64-i128:128-f80:128-n8:16:32:64-S128"
target triple = "x86_64-pc-linux-gnu"

%struct.strbuf = type { i64, i64, ptr }

; Function Attrs: nounwind uwtable
define dso_local void @strbuf_trim_trailing_newline(ptr noundef %0) #0 {
  %2 = alloca ptr, align 8
  store ptr %0, ptr %2, align 8, !tbaa !18
  %3 = load ptr, ptr %2, align 8, !tbaa !18
  %4 = getelementptr inbounds nuw %struct.strbuf, ptr %3, i32 0, i32 1
  %5 = load i64, ptr %4, align 8, !tbaa !22
  %6 = icmp ugt i64 %5, 0
  br i1 %6, label %7, label %50

7:                                                ; preds = %1
  %8 = load ptr, ptr %2, align 8, !tbaa !18
  %9 = getelementptr inbounds nuw %struct.strbuf, ptr %8, i32 0, i32 2
  %10 = load ptr, ptr %9, align 8, !tbaa !23
  %11 = load ptr, ptr %2, align 8, !tbaa !18
  %12 = getelementptr inbounds nuw %struct.strbuf, ptr %11, i32 0, i32 1
  %13 = load i64, ptr %12, align 8, !tbaa !22
  %14 = sub i64 %13, 1
  %15 = getelementptr inbounds nuw i8, ptr %10, i64 %14
  %16 = load i8, ptr %15, align 1, !tbaa !9
  %17 = sext i8 %16 to i32
  %18 = icmp eq i32 %17, 10
  br i1 %18, label %19, label %50

19:                                               ; preds = %7
  %20 = load ptr, ptr %2, align 8, !tbaa !18
  %21 = getelementptr inbounds nuw %struct.strbuf, ptr %20, i32 0, i32 1
  %22 = load i64, ptr %21, align 8, !tbaa !22
  %23 = add i64 %22, -1
  store i64 %23, ptr %21, align 8, !tbaa !22
  %24 = icmp ugt i64 %23, 0
  br i1 %24, label %25, label %42

25:                                               ; preds = %19
  %26 = load ptr, ptr %2, align 8, !tbaa !18
  %27 = getelementptr inbounds nuw %struct.strbuf, ptr %26, i32 0, i32 2
  %28 = load ptr, ptr %27, align 8, !tbaa !23
  %29 = load ptr, ptr %2, align 8, !tbaa !18
  %30 = getelementptr inbounds nuw %struct.strbuf, ptr %29, i32 0, i32 1
  %31 = load i64, ptr %30, align 8, !tbaa !22
  %32 = sub i64 %31, 1
  %33 = getelementptr inbounds nuw i8, ptr %28, i64 %32
  %34 = load i8, ptr %33, align 1, !tbaa !9
  %35 = sext i8 %34 to i32
  %36 = icmp eq i32 %35, 13
  br i1 %36, label %37, label %42

37:                                               ; preds = %25
  %38 = load ptr, ptr %2, align 8, !tbaa !18
  %39 = getelementptr inbounds nuw %struct.strbuf, ptr %38, i32 0, i32 1
  %40 = load i64, ptr %39, align 8, !tbaa !22
  %41 = add i64 %40, -1
  store i64 %41, ptr %39, align 8, !tbaa !22
  br label %42

42:                                               ; preds = %37, %25, %19
  %43 = load ptr, ptr %2, align 8, !tbaa !18
  %44 = getelementptr inbounds nuw %struct.strbuf, ptr %43, i32 0, i32 2
  %45 = load ptr, ptr %44, align 8, !tbaa !23
  %46 = load ptr, ptr %2, align 8, !tbaa !18
  %47 = getelementptr inbounds nuw %struct.strbuf, ptr %46, i32 0, i32 1
  %48 = load i64, ptr %47, align 8, !tbaa !22
  %49 = getelementptr inbounds nuw i8, ptr %45, i64 %48
  store i8 0, ptr %49, align 1, !tbaa !9
  br label %50

50:                                               ; preds = %42, %7, %1
  ret void
}