; Function Attrs: mustprogress nofree norecurse nosync nounwind willreturn memory(readwrite, inaccessiblemem: none) uwtable
define dso_local void @strbuf_trim_trailing_newline(ptr noundef captures(none) %0) local_unnamed_addr #10 {
  %2 = getelementptr inbounds nuw i8, ptr %0, i64 8
  %3 = load i64, ptr %2, align 8, !tbaa !16
  %.not = icmp eq i64 %3, 0
  br i1 %.not, label %22, label %4

4:                                                ; preds = %1
  %5 = getelementptr inbounds nuw i8, ptr %0, i64 16
  %6 = load ptr, ptr %5, align 8, !tbaa !12
  %7 = getelementptr i8, ptr %6, i64 %3
  %8 = getelementptr i8, ptr %7, i64 -1
  %9 = load i8, ptr %8, align 1, !tbaa !4
  %10 = icmp eq i8 %9, 10
  br i1 %10, label %11, label %22

11:                                               ; preds = %4
  %12 = add i64 %3, -1
  store i64 %12, ptr %2, align 8, !tbaa !16
  %.not10 = icmp eq i64 %12, 0
  br i1 %.not10, label %19, label %13

13:                                               ; preds = %11
  %14 = getelementptr i8, ptr %7, i64 -2
  %15 = load i8, ptr %14, align 1, !tbaa !4
  %16 = icmp eq i8 %15, 13
  br i1 %16, label %17, label %19

17:                                               ; preds = %13
  %18 = add i64 %3, -2
  store i64 %18, ptr %2, align 8, !tbaa !16
  br label %19

19:                                               ; preds = %17, %13, %11
  %20 = phi i64 [ %18, %17 ], [ %12, %13 ], [ 0, %11 ]
  %21 = getelementptr inbounds nuw i8, ptr %6, i64 %20
  store i8 0, ptr %21, align 1, !tbaa !4
  br label %22

22:                                               ; preds = %19, %4, %1
  ret void
}